target datalayout = "e-m:e-p270:32:32-p271:32:32-p272:64:64-i64:64-i128:128-f80:128-n8:16:32:64-S128"
target triple = "x86_64-pc-linux-gnu"

@.str.71 = private unnamed_addr constant [4 x i8] c"Bad\00", align 1
@.str.118 = private unnamed_addr constant [14 x i8] c"DebugInfoNone\00", align 1
@.str.119 = private unnamed_addr constant [21 x i8] c"DebugCompilationUnit\00", align 1
@.str.120 = private unnamed_addr constant [15 x i8] c"DebugTypeBasic\00", align 1
@.str.121 = private unnamed_addr constant [17 x i8] c"DebugTypePointer\00", align 1
@.str.122 = private unnamed_addr constant [19 x i8] c"DebugTypeQualifier\00", align 1
@.str.123 = private unnamed_addr constant [15 x i8] c"DebugTypeArray\00", align 1
@.str.124 = private unnamed_addr constant [16 x i8] c"DebugTypeVector\00", align 1
@.str.125 = private unnamed_addr constant [13 x i8] c"DebugTypedef\00", align 1
@.str.126 = private unnamed_addr constant [18 x i8] c"DebugTypeFunction\00", align 1
@.str.127 = private unnamed_addr constant [14 x i8] c"DebugTypeEnum\00", align 1
@.str.128 = private unnamed_addr constant [19 x i8] c"DebugTypeComposite\00", align 1
@.str.129 = private unnamed_addr constant [16 x i8] c"DebugTypeMember\00", align 1
@.str.130 = private unnamed_addr constant [21 x i8] c"DebugTypeInheritance\00", align 1
@.str.131 = private unnamed_addr constant [21 x i8] c"DebugTypePtrToMember\00", align 1
@.str.132 = private unnamed_addr constant [18 x i8] c"DebugTypeTemplate\00", align 1
@.str.133 = private unnamed_addr constant [27 x i8] c"DebugTypeTemplateParameter\00", align 1
@.str.134 = private unnamed_addr constant [35 x i8] c"DebugTypeTemplateTemplateParameter\00", align 1
@.str.135 = private unnamed_addr constant [31 x i8] c"DebugTypeTemplateParameterPack\00", align 1
@.str.136 = private unnamed_addr constant [20 x i8] c"DebugGlobalVariable\00", align 1
@.str.137 = private unnamed_addr constant [25 x i8] c"DebugFunctionDeclaration\00", align 1
@.str.138 = private unnamed_addr constant [14 x i8] c"DebugFunction\00", align 1
@.str.139 = private unnamed_addr constant [18 x i8] c"DebugLexicalBlock\00", align 1
@.str.140 = private unnamed_addr constant [31 x i8] c"DebugLexicalBlockDiscriminator\00", align 1
@.str.141 = private unnamed_addr constant [11 x i8] c"DebugScope\00", align 1
@.str.142 = private unnamed_addr constant [13 x i8] c"DebugNoScope\00", align 1
@.str.143 = private unnamed_addr constant [15 x i8] c"DebugInlinedAt\00", align 1
@.str.144 = private unnamed_addr constant [19 x i8] c"DebugLocalVariable\00", align 1
@.str.145 = private unnamed_addr constant [21 x i8] c"DebugInlinedVariable\00", align 1
@.str.146 = private unnamed_addr constant [13 x i8] c"DebugDeclare\00", align 1
@.str.147 = private unnamed_addr constant [11 x i8] c"DebugValue\00", align 1
@.str.148 = private unnamed_addr constant [15 x i8] c"DebugOperation\00", align 1
@.str.149 = private unnamed_addr constant [16 x i8] c"DebugExpression\00", align 1
@.str.150 = private unnamed_addr constant [14 x i8] c"DebugMacroDef\00", align 1
@.str.151 = private unnamed_addr constant [16 x i8] c"DebugMacroUndef\00", align 1
@.str.152 = private unnamed_addr constant [20 x i8] c"DebugImportedEntity\00", align 1
@.str.153 = private unnamed_addr constant [12 x i8] c"DebugSource\00", align 1
@.str.154 = private unnamed_addr constant [24 x i8] c"DebugFunctionDefinition\00", align 1
@.str.155 = private unnamed_addr constant [21 x i8] c"DebugSourceContinued\00", align 1
@.str.156 = private unnamed_addr constant [10 x i8] c"DebugLine\00", align 1
@.str.157 = private unnamed_addr constant [12 x i8] c"DebugNoLine\00", align 1
@.str.158 = private unnamed_addr constant [21 x i8] c"DebugBuildIdentifier\00", align 1
@.str.159 = private unnamed_addr constant [17 x i8] c"DebugStoragePath\00", align 1
@.str.160 = private unnamed_addr constant [16 x i8] c"DebugEntryPoint\00", align 1
@.str.161 = private unnamed_addr constant [16 x i8] c"DebugTypeMatrix\00", align 1

; Function Attrs: mustprogress nounwind uwtable
define internal noundef ptr @_ZN3spvL42NonSemanticShaderDebugInfo100GetDebugNamesEj(i32 noundef %0) #4 {
  %2 = alloca ptr, align 8
  %3 = alloca i32, align 4
  store i32 %0, ptr %3, align 4
  %4 = load i32, ptr %3, align 4
  switch i32 %4, label %49 [
    i32 0, label %5
    i32 1, label %6
    i32 2, label %7
    i32 3, label %8
    i32 4, label %9
    i32 5, label %10
    i32 6, label %11
    i32 7, label %12
    i32 8, label %13
    i32 9, label %14
    i32 10, label %15
    i32 11, label %16
    i32 12, label %17
    i32 13, label %18
    i32 14, label %19
    i32 15, label %20
    i32 16, label %21
    i32 17, label %22
    i32 18, label %23
    i32 19, label %24
    i32 20, label %25
    i32 21, label %26
    i32 22, label %27
    i32 23, label %28
    i32 24, label %29
    i32 25, label %30
    i32 26, label %31
    i32 27, label %32
    i32 28, label %33
    i32 29, label %34
    i32 30, label %35
    i32 31, label %36
    i32 32, label %37
    i32 33, label %38
    i32 34, label %39
    i32 35, label %40
    i32 101, label %41
    i32 102, label %42
    i32 103, label %43
    i32 104, label %44
    i32 105, label %45
    i32 106, label %46
    i32 107, label %47
    i32 108, label %48
  ]

5:                                                ; preds = %1
  store ptr @.str.118, ptr %2, align 8
  br label %50

6:                                                ; preds = %1
  store ptr @.str.119, ptr %2, align 8
  br label %50

7:                                                ; preds = %1
  store ptr @.str.120, ptr %2, align 8
  br label %50

8:                                                ; preds = %1
  store ptr @.str.121, ptr %2, align 8
  br label %50

9:                                                ; preds = %1
  store ptr @.str.122, ptr %2, align 8
  br label %50

10:                                               ; preds = %1
  store ptr @.str.123, ptr %2, align 8
  br label %50

11:                                               ; preds = %1
  store ptr @.str.124, ptr %2, align 8
  br label %50

12:                                               ; preds = %1
  store ptr @.str.125, ptr %2, align 8
  br label %50

13:                                               ; preds = %1
  store ptr @.str.126, ptr %2, align 8
  br label %50

14:                                               ; preds = %1
  store ptr @.str.127, ptr %2, align 8
  br label %50

15:                                               ; preds = %1
  store ptr @.str.128, ptr %2, align 8
  br label %50

16:                                               ; preds = %1
  store ptr @.str.129, ptr %2, align 8
  br label %50

17:                                               ; preds = %1
  store ptr @.str.130, ptr %2, align 8
  br label %50

18:                                               ; preds = %1
  store ptr @.str.131, ptr %2, align 8
  br label %50

19:                                               ; preds = %1
  store ptr @.str.132, ptr %2, align 8
  br label %50

20:                                               ; preds = %1
  store ptr @.str.133, ptr %2, align 8
  br label %50

21:                                               ; preds = %1
  store ptr @.str.134, ptr %2, align 8
  br label %50

22:                                               ; preds = %1
  store ptr @.str.135, ptr %2, align 8
  br label %50

23:                                               ; preds = %1
  store ptr @.str.136, ptr %2, align 8
  br label %50

24:                                               ; preds = %1
  store ptr @.str.137, ptr %2, align 8
  br label %50

25:                                               ; preds = %1
  store ptr @.str.138, ptr %2, align 8
  br label %50

26:                                               ; preds = %1
  store ptr @.str.139, ptr %2, align 8
  br label %50

27:                                               ; preds = %1
  store ptr @.str.140, ptr %2, align 8
  br label %50

28:                                               ; preds = %1
  store ptr @.str.141, ptr %2, align 8
  br label %50

29:                                               ; preds = %1
  store ptr @.str.142, ptr %2, align 8
  br label %50

30:                                               ; preds = %1
  store ptr @.str.143, ptr %2, align 8
  br label %50

31:                                               ; preds = %1
  store ptr @.str.144, ptr %2, align 8
  br label %50

32:                                               ; preds = %1
  store ptr @.str.145, ptr %2, align 8
  br label %50

33:                                               ; preds = %1
  store ptr @.str.146, ptr %2, align 8
  br label %50

34:                                               ; preds = %1
  store ptr @.str.147, ptr %2, align 8
  br label %50

35:                                               ; preds = %1
  store ptr @.str.148, ptr %2, align 8
  br label %50

36:                                               ; preds = %1
  store ptr @.str.149, ptr %2, align 8
  br label %50

37:                                               ; preds = %1
  store ptr @.str.150, ptr %2, align 8
  br label %50

38:                                               ; preds = %1
  store ptr @.str.151, ptr %2, align 8
  br label %50

39:                                               ; preds = %1
  store ptr @.str.152, ptr %2, align 8
  br label %50

40:                                               ; preds = %1
  store ptr @.str.153, ptr %2, align 8
  br label %50

41:                                               ; preds = %1
  store ptr @.str.154, ptr %2, align 8
  br label %50

42:                                               ; preds = %1
  store ptr @.str.155, ptr %2, align 8
  br label %50

43:                                               ; preds = %1
  store ptr @.str.156, ptr %2, align 8
  br label %50

44:                                               ; preds = %1
  store ptr @.str.157, ptr %2, align 8
  br label %50

45:                                               ; preds = %1
  store ptr @.str.158, ptr %2, align 8
  br label %50

46:                                               ; preds = %1
  store ptr @.str.159, ptr %2, align 8
  br label %50

47:                                               ; preds = %1
  store ptr @.str.160, ptr %2, align 8
  br label %50

48:                                               ; preds = %1
  store ptr @.str.161, ptr %2, align 8
  br label %50

49:                                               ; preds = %1
  store ptr @.str.71, ptr %2, align 8
  br label %50

50:                                               ; preds = %49, %48, %47, %46, %45, %44, %43, %42, %41, %40, %39, %38, %37, %36, %35, %34, %33, %32, %31, %30, %29, %28, %27, %26, %25, %24, %23, %22, %21, %20, %19, %18, %17, %16, %15, %14, %13, %12, %11, %10, %9, %8, %7, %6, %5
  %51 = load ptr, ptr %2, align 8
  ret ptr %51
}