; Function Attrs: mustprogress nofree norecurse nosync nounwind willreturn memory(none) uwtable
define internal fastcc noundef nonnull ptr @_ZN3spvL42NonSemanticShaderDebugInfo100GetDebugNamesEj(i32 noundef %0) unnamed_addr #5 {
  %2 = icmp ult i32 %0, 109
  br i1 %2, label %switch.lookup, label %4

switch.lookup:                                    ; preds = %1
  %3 = zext nneg i32 %0 to i64
  %switch.gep = getelementptr inbounds [109 x ptr], ptr @switch.table._ZN3spvL42NonSemanticShaderDebugInfo100GetDebugNamesEj, i64 0, i64 %3
  %switch.load = load ptr, ptr %switch.gep, align 8
  br label %4

4:                                                ; preds = %1, %switch.lookup
  %.0 = phi ptr [ %switch.load, %switch.lookup ], [ @.str.71, %1 ]
  ret ptr %.0
}